target datalayout = "e-m:e-p270:32:32-p271:32:32-p272:64:64-i64:64-i128:128-f80:128-n8:16:32:64-S128"
target triple = "x86_64-pc-linux-gnu"

%union.ListCell = type { ptr }
%struct.List = type { i32, i32, i32, ptr, [0 x %union.ListCell] }

; Function Attrs: inlinehint nounwind uwtable
define internal i32 @pg_leftmost_one_pos32(i32 noundef %0) #3 {
  %2 = alloca i32, align 4
  store i32 %0, ptr %2, align 4
  %3 = load i32, ptr %2, align 4
  %4 = call i32 @llvm.ctlz.i32(i32 %3, i1 true)
  %5 = sub i32 31, %4
  ret i32 %5
}

; Function Attrs: nounwind uwtable
define internal void @enlarge_list(ptr noundef %0, i32 noundef %1) #0 {
  %3 = alloca ptr, align 8
  %4 = alloca i32, align 4
  %5 = alloca i32, align 4
  store ptr %0, ptr %3, align 8
  store i32 %1, ptr %4, align 4
  call void @llvm.lifetime.start.p0(i64 4, ptr %5) #7
  %6 = load i32, ptr %4, align 4
  %7 = icmp sgt i32 16, %6
  br i1 %7, label %8, label %9

8:                                                ; preds = %2
  br label %11

9:                                                ; preds = %2
  %10 = load i32, ptr %4, align 4
  br label %11

11:                                               ; preds = %9, %8
  %12 = phi i32 [ 16, %8 ], [ %10, %9 ]
  %13 = call i32 @pg_nextpower2_32(i32 noundef %12)
  store i32 %13, ptr %5, align 4
  %14 = load ptr, ptr %3, align 8
  %15 = getelementptr inbounds nuw %struct.List, ptr %14, i32 0, i32 3
  %16 = load ptr, ptr %15, align 8
  %17 = load ptr, ptr %3, align 8
  %18 = getelementptr inbounds nuw %struct.List, ptr %17, i32 0, i32 4
  %19 = getelementptr inbounds [0 x %union.ListCell], ptr %18, i64 0, i64 0
  %20 = icmp eq ptr %16, %19
  br i1 %20, label %21, label %44

21:                                               ; preds = %11
  %22 = load ptr, ptr %3, align 8
  %23 = call ptr @GetMemoryChunkContext(ptr noundef %22)
  %24 = load i32, ptr %5, align 4
  %25 = sext i32 %24 to i64
  %26 = mul i64 %25, 8
  %27 = call ptr @MemoryContextAlloc(ptr noundef %23, i64 noundef %26)
  %28 = load ptr, ptr %3, align 8
  %29 = getelementptr inbounds nuw %struct.List, ptr %28, i32 0, i32 3
  store ptr %27, ptr %29, align 8
  %30 = load ptr, ptr %3, align 8
  %31 = getelementptr inbounds nuw %struct.List, ptr %30, i32 0, i32 3
  %32 = load ptr, ptr %31, align 8
  %33 = load ptr, ptr %3, align 8
  %34 = getelementptr inbounds nuw %struct.List, ptr %33, i32 0, i32 4
  %35 = getelementptr inbounds [0 x %union.ListCell], ptr %34, i64 0, i64 0
  %36 = load ptr, ptr %3, align 8
  %37 = getelementptr inbounds nuw %struct.List, ptr %36, i32 0, i32 1
  %38 = load i32, ptr %37, align 4
  %39 = sext i32 %38 to i64
  %40 = mul i64 %39, 8
  call void @llvm.memcpy.p0.p0.i64(ptr align 8 %32, ptr align 8 %35, i64 %40, i1 false)
  br label %41

41:                                               ; preds = %21
  br label %42

42:                                               ; preds = %41
  br label %43

43:                                               ; preds = %42
  br label %54

44:                                               ; preds = %11
  %45 = load ptr, ptr %3, align 8
  %46 = getelementptr inbounds nuw %struct.List, ptr %45, i32 0, i32 3
  %47 = load ptr, ptr %46, align 8
  %48 = load i32, ptr %5, align 4
  %49 = sext i32 %48 to i64
  %50 = mul i64 %49, 8
  %51 = call ptr @repalloc(ptr noundef %47, i64 noundef %50)
  %52 = load ptr, ptr %3, align 8
  %53 = getelementptr inbounds nuw %struct.List, ptr %52, i32 0, i32 3
  store ptr %51, ptr %53, align 8
  br label %54

54:                                               ; preds = %44, %43
  %55 = load i32, ptr %5, align 4
  %56 = load ptr, ptr %3, align 8
  %57 = getelementptr inbounds nuw %struct.List, ptr %56, i32 0, i32 2
  store i32 %55, ptr %57, align 8
  call void @llvm.lifetime.end.p0(i64 4, ptr %5) #7
  ret void
}

; Function Attrs: inlinehint nounwind uwtable
define internal i32 @pg_nextpower2_32(i32 noundef %0) #3 {
  %2 = alloca i32, align 4
  %3 = alloca i32, align 4
  store i32 %0, ptr %3, align 4
  %4 = load i32, ptr %3, align 4
  %5 = load i32, ptr %3, align 4
  %6 = sub i32 %5, 1
  %7 = and i32 %4, %6
  %8 = icmp eq i32 %7, 0
  br i1 %8, label %9, label %11

9:                                                ; preds = %1
  %10 = load i32, ptr %3, align 4
  store i32 %10, ptr %2, align 4
  br label %16

11:                                               ; preds = %1
  %12 = load i32, ptr %3, align 4
  %13 = call i32 @pg_leftmost_one_pos32(i32 noundef %12)
  %14 = add i32 %13, 1
  %15 = shl i32 1, %14
  store i32 %15, ptr %2, align 4
  br label %16

16:                                               ; preds = %11, %9
  %17 = load i32, ptr %2, align 4
  ret i32 %17
}

; Function Attrs: inlinehint nounwind uwtable
define internal ptr @list_last_cell(ptr noundef %0) #3 {
  %2 = alloca ptr, align 8
  store ptr %0, ptr %2, align 8
  %3 = load ptr, ptr %2, align 8
  %4 = getelementptr inbounds nuw %struct.List, ptr %3, i32 0, i32 3
  %5 = load ptr, ptr %4, align 8
  %6 = load ptr, ptr %2, align 8
  %7 = getelementptr inbounds nuw %struct.List, ptr %6, i32 0, i32 1
  %8 = load i32, ptr %7, align 4
  %9 = sub i32 %8, 1
  %10 = sext i32 %9 to i64
  %11 = getelementptr inbounds %union.ListCell, ptr %5, i64 %10
  ret ptr %11
}

; Function Attrs: nounwind uwtable
define internal void @new_tail_cell(ptr noundef %0) #0 {
  %2 = alloca ptr, align 8
  store ptr %0, ptr %2, align 8
  %3 = load ptr, ptr %2, align 8
  %4 = getelementptr inbounds nuw %struct.List, ptr %3, i32 0, i32 1
  %5 = load i32, ptr %4, align 4
  %6 = load ptr, ptr %2, align 8
  %7 = getelementptr inbounds nuw %struct.List, ptr %6, i32 0, i32 2
  %8 = load i32, ptr %7, align 8
  %9 = icmp sge i32 %5, %8
  br i1 %9, label %10, label %16

10:                                               ; preds = %1
  %11 = load ptr, ptr %2, align 8
  %12 = load ptr, ptr %2, align 8
  %13 = getelementptr inbounds nuw %struct.List, ptr %12, i32 0, i32 1
  %14 = load i32, ptr %13, align 4
  %15 = add i32 %14, 1
  call void @enlarge_list(ptr noundef %11, i32 noundef %15)
  br label %16

16:                                               ; preds = %10, %1
  %17 = load ptr, ptr %2, align 8
  %18 = getelementptr inbounds nuw %struct.List, ptr %17, i32 0, i32 1
  %19 = load i32, ptr %18, align 4
  %20 = add i32 %19, 1
  store i32 %20, ptr %18, align 4
  ret void
}

; Function Attrs: nounwind uwtable
define internal ptr @new_list(i32 noundef %0, i32 noundef %1) #0 {
  %3 = alloca i32, align 4
  %4 = alloca i32, align 4
  %5 = alloca ptr, align 8
  %6 = alloca i32, align 4
  store i32 %0, ptr %3, align 4
  store i32 %1, ptr %4, align 4
  call void @llvm.lifetime.start.p0(i64 8, ptr %5) #7
  call void @llvm.lifetime.start.p0(i64 4, ptr %6) #7
  %7 = load i32, ptr %4, align 4
  %8 = add i32 %7, 3
  %9 = icmp sgt i32 8, %8
  br i1 %9, label %10, label %11

10:                                               ; preds = %2
  br label %14

11:                                               ; preds = %2
  %12 = load i32, ptr %4, align 4
  %13 = add i32 %12, 3
  br label %14

14:                                               ; preds = %11, %10
  %15 = phi i32 [ 8, %10 ], [ %13, %11 ]
  %16 = call i32 @pg_nextpower2_32(i32 noundef %15)
  store i32 %16, ptr %6, align 4
  %17 = load i32, ptr %6, align 4
  %18 = sub i32 %17, 3
  store i32 %18, ptr %6, align 4
  %19 = load i32, ptr %6, align 4
  %20 = sext i32 %19 to i64
  %21 = mul i64 %20, 8
  %22 = add i64 24, %21
  %23 = call ptr @palloc(i64 noundef %22)
  store ptr %23, ptr %5, align 8
  %24 = load i32, ptr %3, align 4
  %25 = load ptr, ptr %5, align 8
  %26 = getelementptr inbounds nuw %struct.List, ptr %25, i32 0, i32 0
  store i32 %24, ptr %26, align 8
  %27 = load i32, ptr %4, align 4
  %28 = load ptr, ptr %5, align 8
  %29 = getelementptr inbounds nuw %struct.List, ptr %28, i32 0, i32 1
  store i32 %27, ptr %29, align 4
  %30 = load i32, ptr %6, align 4
  %31 = load ptr, ptr %5, align 8
  %32 = getelementptr inbounds nuw %struct.List, ptr %31, i32 0, i32 2
  store i32 %30, ptr %32, align 8
  %33 = load ptr, ptr %5, align 8
  %34 = getelementptr inbounds nuw %struct.List, ptr %33, i32 0, i32 4
  %35 = getelementptr inbounds [0 x %union.ListCell], ptr %34, i64 0, i64 0
  %36 = load ptr, ptr %5, align 8
  %37 = getelementptr inbounds nuw %struct.List, ptr %36, i32 0, i32 3
  store ptr %35, ptr %37, align 8
  %38 = load ptr, ptr %5, align 8
  call void @llvm.lifetime.end.p0(i64 4, ptr %6) #7
  call void @llvm.lifetime.end.p0(i64 8, ptr %5) #7
  ret ptr %38
}

; Function Attrs: nounwind uwtable
define dso_local ptr @lappend(ptr noundef %0, ptr noundef %1) #0 {
  %3 = alloca ptr, align 8
  %4 = alloca ptr, align 8
  store ptr %0, ptr %3, align 8
  store ptr %1, ptr %4, align 8
  %5 = load ptr, ptr %3, align 8
  %6 = icmp eq ptr %5, null
  br i1 %6, label %7, label %9

7:                                                ; preds = %2
  %8 = call ptr @new_list(i32 noundef 1, i32 noundef 1)
  store ptr %8, ptr %3, align 8
  br label %11

9:                                                ; preds = %2
  %10 = load ptr, ptr %3, align 8
  call void @new_tail_cell(ptr noundef %10)
  br label %11

11:                                               ; preds = %9, %7
  %12 = load ptr, ptr %4, align 8
  %13 = load ptr, ptr %3, align 8
  %14 = call ptr @list_last_cell(ptr noundef %13)
  store ptr %12, ptr %14, align 8
  %15 = load ptr, ptr %3, align 8
  ret ptr %15
}